Certificate:
    Data:
        Version: 1 (0x0)
        Serial Number:
            54:94:3f:0f:7f:6d:b9:ae:d7:5b:d1:ea:cd:67:be:c2:1b:2d:90:9c
        Signature Algorithm: ecdsa-with-SHA256
        Issuer: C = FR, ST = FRANCE, L = Limoges, OU = Master 1, OU = Service de Certification, CN = CertiPlus
        Validity
            Not Before: Apr 30 20:32:10 2024 GMT
            Not After : Apr 28 20:32:10 2034 GMT
        Subject: CN = localhost
        Subject Public Key Info:
            Public Key Algorithm: id-ecPublicKey
                Public-Key: (256 bit)
                pub:
                    04:d3:87:2d:e6:12:99:a9:59:cf:60:0e:04:99:03:
                    68:c4:ca:68:ee:48:7e:2a:60:e5:7c:94:98:a6:c4:
                    b7:23:4d:e4:9f:b5:02:d7:31:92:f7:6a:ec:04:7f:
                    bf:2e:e5:83:64:4f:73:2c:87:38:60:8e:3b:9c:c1:
                    cc:9b:ce:5f:0c
                ASN1 OID: prime256v1
                NIST CURVE: P-256
    Signature Algorithm: ecdsa-with-SHA256
    Signature Value:
        30:45:02:20:3f:cc:e0:78:b1:e0:36:34:8b:81:4f:3c:04:50:
        de:62:b0:04:f8:57:41:dc:b0:ab:13:19:14:e0:fc:47:2a:b0:
        02:21:00:c1:80:5e:15:ae:a0:c3:65:e3:1d:51:2d:4d:4f:53:
        3f:74:c5:7b:38:08:d0:c9:f4:dd:69:4b:1f:a9:0f:03:4e
-----BEGIN CERTIFICATE-----
MIIBiTCCAS8CFFSUPw9/bbmu11vR6s1nvsIbLZCcMAoGCCqGSM49BAMCMHoxCzAJ
BgNVBAYTAkZSMQ8wDQYDVQQIEwZGUkFOQ0UxEDAOBgNVBAcTB0xpbW9nZXMxETAP
BgNVBAsTCE1hc3RlciAxMSEwHwYDVQQLExhTZXJ2aWNlIGRlIENlcnRpZmljYXRp
b24xEjAQBgNVBAMTCUNlcnRpUGx1czAeFw0yNDA0MzAyMDMyMTBaFw0zNDA0Mjgy
MDMyMTBaMBQxEjAQBgNVBAMTCWxvY2FsaG9zdDBZMBMGByqGSM49AgEGCCqGSM49
AwEHA0IABNOHLeYSmalZz2AOBJkDaMTKaO5Ifipg5XyUmKbEtyNN5J+1Atcxkvdq
7AR/vy7lg2RPcyyHOGCOO5zBzJvOXwwwCgYIKoZIzj0EAwIDSAAwRQIgP8zgeLHg
NjSLgU88BFDeYrAE+FdB3LCrExkU4PxHKrACIQDBgF4VrqDDZeMdUS1NT1M/dMV7
OAjQyfTdaUsfqQ8DTg==
-----END CERTIFICATE-----
