Certificate:
    Data:
        Version: 3 (0x2)
        Serial Number:
            59:c2:34:3a:ff:3d:6b:1e:51:b7:f5:b1:07:3b:60:9c:9f:72:90:54
        Signature Algorithm: ecdsa-with-SHA256
        Issuer: C = FR, ST = FRANCE, L = Limoges, OU = Master 1, OU = Service de Certification, CN = CertiPlus
        Validity
            Not Before: Apr 30 20:32:10 2024 GMT
            Not After : May 30 20:32:10 2024 GMT
        Subject: C = FR, ST = FRANCE, L = Limoges, OU = Master 1, OU = Service de Certification, CN = CertiPlus
        Subject Public Key Info:
            Public Key Algorithm: id-ecPublicKey
                Public-Key: (256 bit)
                pub:
                    04:34:83:12:61:c6:74:cb:5f:a2:cc:32:be:d0:8a:
                    90:4d:0e:0e:14:0f:77:8b:c8:8b:3d:45:ab:f7:0f:
                    96:cd:a4:38:91:e3:1b:4e:22:3e:9a:22:76:61:40:
                    32:99:4f:a1:0c:db:66:22:3b:ca:b9:d7:59:10:1a:
                    c8:10:f2:d5:eb
                ASN1 OID: prime256v1
                NIST CURVE: P-256
        X509v3 extensions:
            X509v3 Basic Constraints: critical
                CA:TRUE
            X509v3 Subject Key Identifier: 
                04:9C:27:2D:8A:CE:82:BB:4D:F9:A7:F3:5F:C1:D5:E3:AF:95:EB:30
    Signature Algorithm: ecdsa-with-SHA256
    Signature Value:
        30:44:02:20:14:51:15:e0:5b:12:d5:67:db:c1:b5:78:f6:e3:
        d6:16:20:cb:3e:61:83:80:db:8a:ea:4d:1c:58:71:10:29:71:
        02:20:01:89:aa:20:1f:1e:97:58:b7:5c:fa:d2:ef:13:ea:eb:
        e4:18:8d:6b:b7:fc:8a:ab:b8:45:5a:09:78:c0:ac:32
-----BEGIN CERTIFICATE-----
MIICJzCCAc6gAwIBAgIUWcI0Ov89ax5Rt/WxBztgnJ9ykFQwCgYIKoZIzj0EAwIw
ejELMAkGA1UEBhMCRlIxDzANBgNVBAgTBkZSQU5DRTEQMA4GA1UEBxMHTGltb2dl
czERMA8GA1UECxMITWFzdGVyIDExITAfBgNVBAsTGFNlcnZpY2UgZGUgQ2VydGlm
aWNhdGlvbjESMBAGA1UEAxMJQ2VydGlQbHVzMB4XDTI0MDQzMDIwMzIxMFoXDTI0
MDUzMDIwMzIxMFowejELMAkGA1UEBhMCRlIxDzANBgNVBAgTBkZSQU5DRTEQMA4G
A1UEBxMHTGltb2dlczERMA8GA1UECxMITWFzdGVyIDExITAfBgNVBAsTGFNlcnZp
Y2UgZGUgQ2VydGlmaWNhdGlvbjESMBAGA1UEAxMJQ2VydGlQbHVzMFkwEwYHKoZI
zj0CAQYIKoZIzj0DAQcDQgAENIMSYcZ0y1+izDK+0IqQTQ4OFA93i8iLPUWr9w+W
zaQ4keMbTiI+miJ2YUAymU+hDNtmIjvKuddZEBrIEPLV66MyMDAwDwYDVR0TAQH/
BAUwAwEB/zAdBgNVHQ4EFgQUBJwnLYrOgrtN+afzX8HV46+V6zAwCgYIKoZIzj0E
AwIDRwAwRAIgFFEV4FsS1WfbwbV49uPWFiDLPmGDgNuK6k0cWHEQKXECIAGJqiAf
HpdYt1z60u8T6uvkGI1rt/yKq7hFWgl4wKwy
-----END CERTIFICATE-----
